; Function Attrs: nofree norecurse nosync nounwind memory(argmem: readwrite) uwtable
define internal void @pred8x16_mad_cow_dc_l0t_10(ptr noundef captures(none) %0, i64 noundef %1) #3 {
  %3 = ashr i64 %1, 1
  br label %4

4:                                                ; preds = %4, %2
  %indvars.iv.i = phi i64 [ 0, %2 ], [ %indvars.iv.next.i, %4 ]
  %.02326.i = phi i32 [ 0, %2 ], [ %9, %4 ]
  %.02425.i = phi i32 [ 0, %2 ], [ %13, %4 ]
  %5 = sub i64 %indvars.iv.i, %3
  %6 = getelementptr i16, ptr %0, i64 %5
  %7 = load i16, ptr %6, align 2, !tbaa !9
  %8 = zext i16 %7 to i32
  %9 = add nuw nsw i32 %.02326.i, %8
  %10 = getelementptr i8, ptr %6, i64 8
  %11 = load i16, ptr %10, align 2, !tbaa !9
  %12 = zext i16 %11 to i32
  %13 = add nuw nsw i32 %.02425.i, %12
  %indvars.iv.next.i = add nuw nsw i64 %indvars.iv.i, 1
  %exitcond.not.i = icmp eq i64 %indvars.iv.next.i, 4
  br i1 %exitcond.not.i, label %14, label %4, !llvm.loop !100

14:                                               ; preds = %4
  %15 = add nuw nsw i32 %9, 2
  %16 = lshr i32 %15, 2
  %17 = zext nneg i32 %16 to i64
  %18 = mul i64 %17, 281479271743489
  %19 = add nuw nsw i32 %13, 2
  %20 = lshr i32 %19, 2
  %21 = zext nneg i32 %20 to i64
  %22 = mul i64 %21, 281479271743489
  br label %23

23:                                               ; preds = %23, %14
  %indvars.iv31.i = phi i64 [ 0, %14 ], [ %indvars.iv.next32.i, %23 ]
  %24 = mul nsw i64 %indvars.iv31.i, %3
  %25 = getelementptr inbounds i16, ptr %0, i64 %24
  store i64 %18, ptr %25, align 8, !tbaa !8
  %26 = getelementptr inbounds nuw i8, ptr %25, i64 8
  store i64 %22, ptr %26, align 8, !tbaa !8
  %indvars.iv.next32.i = add nuw nsw i64 %indvars.iv31.i, 1
  %exitcond34.not.i = icmp eq i64 %indvars.iv.next32.i, 16
  br i1 %exitcond34.not.i, label %pred8x16_top_dc_10_c.exit, label %23, !llvm.loop !101

pred8x16_top_dc_10_c.exit:                        ; preds = %23
  %27 = lshr i64 %1, 1
  %28 = trunc i64 %27 to i32
  %.neg.i = mul i64 %27, -4294967296
  %29 = ashr exact i64 %.neg.i, 31
  %30 = getelementptr inbounds i8, ptr %0, i64 %29
  %31 = load i16, ptr %30, align 2, !tbaa !9
  %32 = zext i16 %31 to i64
  %33 = shl i64 %27, 32
  %sext.i = sub i64 4294967296, %33
  %34 = ashr exact i64 %sext.i, 31
  %35 = getelementptr inbounds i8, ptr %0, i64 %34
  %36 = load i16, ptr %35, align 2, !tbaa !9
  %37 = zext i16 %36 to i64
  %sext30.i = sub i64 8589934592, %33
  %38 = ashr exact i64 %sext30.i, 31
  %39 = getelementptr inbounds i8, ptr %0, i64 %38
  %40 = load i16, ptr %39, align 2, !tbaa !9
  %41 = zext i16 %40 to i64
  %sext31.i = sub i64 12884901888, %33
  %42 = ashr exact i64 %sext31.i, 31
  %43 = getelementptr inbounds i8, ptr %0, i64 %42
  %44 = load i16, ptr %43, align 2, !tbaa !9
  %45 = zext i16 %44 to i64
  %46 = getelementptr inbounds i8, ptr %0, i64 -2
  %47 = load i16, ptr %46, align 2, !tbaa !9
  %48 = zext i16 %47 to i64
  %sext32.i = add i64 %33, -4294967296
  %49 = ashr exact i64 %sext32.i, 31
  %50 = getelementptr inbounds i8, ptr %0, i64 %49
  %51 = load i16, ptr %50, align 2, !tbaa !9
  %52 = zext i16 %51 to i64
  %53 = shl nsw i32 %28, 1
  %54 = sext i32 %53 to i64
  %55 = getelementptr i16, ptr %0, i64 %54
  %56 = getelementptr i8, ptr %55, i64 -2
  %57 = load i16, ptr %56, align 2, !tbaa !9
  %58 = zext i16 %57 to i64
  %sext34.i = mul i64 %27, 12884901888
  %59 = ashr exact i64 %sext34.i, 31
  %60 = getelementptr i8, ptr %0, i64 %59
  %61 = getelementptr i8, ptr %60, i64 -2
  %62 = load i16, ptr %61, align 2, !tbaa !9
  %63 = zext i16 %62 to i64
  %64 = add nuw nsw i64 %32, 4
  %65 = add nuw nsw i64 %64, %37
  %66 = add nuw nsw i64 %65, %41
  %67 = add nuw nsw i64 %66, %45
  %68 = add nuw nsw i64 %67, %48
  %69 = add nuw nsw i64 %68, %52
  %70 = add nuw nsw i64 %69, %58
  %71 = add nuw nsw i64 %70, %63
  %72 = lshr i64 %71, 3
  %73 = mul nuw i64 %72, 281479271743489
  store i64 %73, ptr %0, align 8, !tbaa !8
  %74 = ashr exact i64 %33, 31
  %75 = getelementptr inbounds i8, ptr %0, i64 %74
  store i64 %73, ptr %75, align 8, !tbaa !8
  store i64 %73, ptr %55, align 8, !tbaa !8
  store i64 %73, ptr %60, align 8, !tbaa !8
  ret void
}